target datalayout = "e-m:e-p270:32:32-p271:32:32-p272:64:64-i64:64-i128:128-f80:128-n8:16:32:64-S128"
target triple = "x86_64-pc-linux-gnu"

%struct._asn1_ctx_t = type { i32, i32, i8, ptr, ptr, ptr, ptr, ptr, %struct.anon, %struct.anon.2, %struct.anon.3, ptr }
%struct.anon = type { i32, i8, i8, i8, ptr, ptr, i32, i32, ptr, ptr, ptr, %union.anon }
%union.anon = type { %struct.anon.0 }
%struct.anon.0 = type { ptr }
%struct.anon.2 = type { ptr, ptr, ptr }
%struct.anon.3 = type { i32, i8, ptr, i32, i32, ptr, ptr, ptr, %union.anon.4 }
%union.anon.4 = type { %struct.anon.5 }
%struct.anon.5 = type { ptr }
%struct.cms_private_data = type { ptr, ptr }
%struct._packet_info = type { ptr, ptr, i32, i32, %struct.nstime_t, %struct.nstime_t, %struct.nstime_t, i8, ptr, ptr, ptr, ptr, %struct._address, %struct._address, %struct._address, %struct._address, %struct._address, %struct._address, i32, ptr, i8, [3 x i8], %struct.anon.7, i32, i32, i32, i32, ptr, i8, ptr, ptr, i16, i16, i32, i32, i16, i32, i32, ptr, ptr, ptr, i8, i8, i16, i16, i16, i32, i16, i16, ptr, ptr, ptr, ptr, ptr, i32, i32 }
%struct.nstime_t = type { i64, i32 }
%struct._address = type { i32, i32, ptr, ptr }
%struct.anon.7 = type { i8, [3 x i8] }

@hf_cms_MessageDigest_PDU = internal global i32 0, align 4
@proto_cms = internal global i32 0, align 4
@digest_buf = hidden global [20 x i8] zeroinitializer, align 16
@.str.676 = private unnamed_addr constant [14 x i8] c"1.3.14.3.2.26\00", align 1
@.str.677 = private unnamed_addr constant [19 x i8] c"1.2.840.113549.2.5\00", align 1
@.str.678 = private unnamed_addr constant [24 x i8] c" [incorrect, should be \00", align 1
@.str.679 = private unnamed_addr constant [5 x i8] c"%02X\00", align 1
@.str.680 = private unnamed_addr constant [2 x i8] c"]\00", align 1
@.str.681 = private unnamed_addr constant [11 x i8] c" [correct]\00", align 1
@.str.682 = private unnamed_addr constant [20 x i8] c" [unable to verify]\00", align 1

; Function Attrs: null_pointer_is_valid sspstrong uwtable
define internal void @cms_verify_msg_digest(ptr noundef %0, ptr noundef %1, ptr noundef %2, ptr noundef %3, i32 noundef %4) #0 {
  %6 = alloca ptr, align 8
  %7 = alloca ptr, align 8
  %8 = alloca ptr, align 8
  %9 = alloca ptr, align 8
  %10 = alloca i32, align 4
  %11 = alloca i32, align 4
  %12 = alloca i32, align 4
  store ptr %0, ptr %6, align 8
  store ptr %1, ptr %7, align 8
  store ptr %2, ptr %8, align 8
  store ptr %3, ptr %9, align 8
  store i32 %4, ptr %10, align 4
  call void @llvm.lifetime.start.p0(i64 4, ptr %11) #5
  store i32 0, ptr %11, align 4
  call void @llvm.lifetime.start.p0(i64 4, ptr %12) #5
  store i32 0, ptr %12, align 4
  %13 = load ptr, ptr %8, align 8
  %14 = call i32 @strcmp(ptr noundef %13, ptr noundef @.str.676) #7
  %15 = icmp eq i32 %14, 0
  br i1 %15, label %16, label %24

16:                                               ; preds = %5
  %17 = load ptr, ptr %7, align 8
  %18 = load ptr, ptr %7, align 8
  %19 = call i32 @tvb_captured_length(ptr noundef %18)
  %20 = call ptr @tvb_get_ptr(ptr noundef %17, i32 noundef 0, i32 noundef %19)
  %21 = load ptr, ptr %7, align 8
  %22 = call i32 @tvb_captured_length(ptr noundef %21)
  %23 = zext i32 %22 to i64
  call void @gcry_md_hash_buffer(i32 noundef 2, ptr noundef @digest_buf, ptr noundef %20, i64 noundef %23)
  store i32 20, ptr %12, align 4
  br label %37

24:                                               ; preds = %5
  %25 = load ptr, ptr %8, align 8
  %26 = call i32 @strcmp(ptr noundef %25, ptr noundef @.str.677) #7
  %27 = icmp eq i32 %26, 0
  br i1 %27, label %28, label %36

28:                                               ; preds = %24
  %29 = load ptr, ptr %7, align 8
  %30 = load ptr, ptr %7, align 8
  %31 = call i32 @tvb_captured_length(ptr noundef %30)
  %32 = call ptr @tvb_get_ptr(ptr noundef %29, i32 noundef 0, i32 noundef %31)
  %33 = load ptr, ptr %7, align 8
  %34 = call i32 @tvb_captured_length(ptr noundef %33)
  %35 = zext i32 %34 to i64
  call void @gcry_md_hash_buffer(i32 noundef 1, ptr noundef @digest_buf, ptr noundef %32, i64 noundef %35)
  store i32 16, ptr %12, align 4
  br label %36

36:                                               ; preds = %28, %24
  br label %37

37:                                               ; preds = %36, %16
  %38 = load i32, ptr %12, align 4
  %39 = icmp ne i32 %38, 0
  br i1 %39, label %40, label %73

40:                                               ; preds = %37
  %41 = load ptr, ptr %9, align 8
  %42 = load i32, ptr %10, align 4
  %43 = load i32, ptr %12, align 4
  %44 = call zeroext i1 @tvb_bytes_exist(ptr noundef %41, i32 noundef %42, i32 noundef %43)
  br i1 %44, label %45, label %70

45:                                               ; preds = %40
  %46 = load ptr, ptr %9, align 8
  %47 = load i32, ptr %10, align 4
  %48 = load i32, ptr %12, align 4
  %49 = sext i32 %48 to i64
  %50 = call i32 @tvb_memeql(ptr noundef %46, i32 noundef %47, ptr noundef @digest_buf, i64 noundef %49)
  %51 = icmp ne i32 %50, 0
  br i1 %51, label %52, label %70

52:                                               ; preds = %45
  %53 = load ptr, ptr %6, align 8
  call void (ptr, ptr, ...) @proto_item_append_text(ptr noundef %53, ptr noundef @.str.678)
  store i32 0, ptr %11, align 4
  br label %54

54:                                               ; preds = %65, %52
  %55 = load i32, ptr %11, align 4
  %56 = load i32, ptr %12, align 4
  %57 = icmp slt i32 %55, %56
  br i1 %57, label %58, label %68

58:                                               ; preds = %54
  %59 = load ptr, ptr %6, align 8
  %60 = load i32, ptr %11, align 4
  %61 = sext i32 %60 to i64
  %62 = getelementptr [20 x i8], ptr @digest_buf, i64 0, i64 %61
  %63 = load i8, ptr %62, align 1
  %64 = zext i8 %63 to i32
  call void (ptr, ptr, ...) @proto_item_append_text(ptr noundef %59, ptr noundef @.str.679, i32 noundef %64)
  br label %65

65:                                               ; preds = %58
  %66 = load i32, ptr %11, align 4
  %67 = add i32 %66, 1
  store i32 %67, ptr %11, align 4
  br label %54, !llvm.loop !10

68:                                               ; preds = %54
  %69 = load ptr, ptr %6, align 8
  call void (ptr, ptr, ...) @proto_item_append_text(ptr noundef %69, ptr noundef @.str.680)
  br label %72

70:                                               ; preds = %45, %40
  %71 = load ptr, ptr %6, align 8
  call void (ptr, ptr, ...) @proto_item_append_text(ptr noundef %71, ptr noundef @.str.681)
  br label %72

72:                                               ; preds = %70, %68
  br label %75

73:                                               ; preds = %37
  %74 = load ptr, ptr %6, align 8
  call void (ptr, ptr, ...) @proto_item_append_text(ptr noundef %74, ptr noundef @.str.682)
  br label %75

75:                                               ; preds = %73, %72
  call void @llvm.lifetime.end.p0(i64 4, ptr %12) #5
  call void @llvm.lifetime.end.p0(i64 4, ptr %11) #5
  ret void
}

; Function Attrs: null_pointer_is_valid sspstrong uwtable
define internal ptr @cms_get_private_data(ptr noundef %0) #0 {
  %2 = alloca ptr, align 8
  %3 = alloca ptr, align 8
  store ptr %0, ptr %2, align 8
  call void @llvm.lifetime.start.p0(i64 8, ptr %3) #5
  %4 = load ptr, ptr %2, align 8
  %5 = getelementptr inbounds nuw %struct._packet_info, ptr %4, i32 0, i32 51
  %6 = load ptr, ptr %5, align 8
  %7 = load ptr, ptr %2, align 8
  %8 = load i32, ptr @proto_cms, align 4
  %9 = call ptr @p_get_proto_data(ptr noundef %6, ptr noundef %7, i32 noundef %8, i32 noundef 0)
  store ptr %9, ptr %3, align 8
  %10 = load ptr, ptr %3, align 8
  %11 = icmp ne ptr %10, null
  br i1 %11, label %23, label %12

12:                                               ; preds = %1
  %13 = load ptr, ptr %2, align 8
  %14 = getelementptr inbounds nuw %struct._packet_info, ptr %13, i32 0, i32 51
  %15 = load ptr, ptr %14, align 8
  %16 = call noalias ptr @wmem_alloc0(ptr noundef %15, i64 noundef 16) #6
  store ptr %16, ptr %3, align 8
  %17 = load ptr, ptr %2, align 8
  %18 = getelementptr inbounds nuw %struct._packet_info, ptr %17, i32 0, i32 51
  %19 = load ptr, ptr %18, align 8
  %20 = load ptr, ptr %2, align 8
  %21 = load i32, ptr @proto_cms, align 4
  %22 = load ptr, ptr %3, align 8
  call void @p_add_proto_data(ptr noundef %19, ptr noundef %20, i32 noundef %21, i32 noundef 0, ptr noundef %22)
  br label %23

23:                                               ; preds = %12, %1
  %24 = load ptr, ptr %3, align 8
  call void @llvm.lifetime.end.p0(i64 8, ptr %3) #5
  ret ptr %24
}

; Function Attrs: null_pointer_is_valid sspstrong uwtable
define internal i32 @dissect_cms_MessageDigest(i1 noundef zeroext %0, ptr noundef %1, i32 noundef %2, ptr noundef %3, ptr noundef %4, i32 noundef %5) #0 {
  %7 = alloca i8, align 1
  %8 = alloca ptr, align 8
  %9 = alloca i32, align 4
  %10 = alloca ptr, align 8
  %11 = alloca ptr, align 8
  %12 = alloca i32, align 4
  %13 = alloca ptr, align 8
  %14 = alloca ptr, align 8
  %15 = alloca i32, align 4
  %16 = zext i1 %0 to i8
  store i8 %16, ptr %7, align 1
  store ptr %1, ptr %8, align 8
  store i32 %2, ptr %9, align 4
  store ptr %3, ptr %10, align 8
  store ptr %4, ptr %11, align 8
  store i32 %5, ptr %12, align 4
  call void @llvm.lifetime.start.p0(i64 8, ptr %13) #5
  %17 = load ptr, ptr %10, align 8
  %18 = getelementptr inbounds nuw %struct._asn1_ctx_t, ptr %17, i32 0, i32 3
  %19 = load ptr, ptr %18, align 8
  %20 = call ptr @cms_get_private_data(ptr noundef %19)
  store ptr %20, ptr %13, align 8
  call void @llvm.lifetime.start.p0(i64 8, ptr %14) #5
  call void @llvm.lifetime.start.p0(i64 4, ptr %15) #5
  %21 = load i32, ptr %9, align 4
  store i32 %21, ptr %15, align 4
  %22 = load i8, ptr %7, align 1, !range !6, !noundef !7
  %23 = trunc i8 %22 to i1
  %24 = load ptr, ptr %10, align 8
  %25 = load ptr, ptr %11, align 8
  %26 = load ptr, ptr %8, align 8
  %27 = load i32, ptr %9, align 4
  %28 = load i32, ptr %12, align 4
  %29 = call i32 @dissect_ber_octet_string(i1 noundef zeroext %23, ptr noundef %24, ptr noundef %25, ptr noundef %26, i32 noundef %27, i32 noundef %28, ptr noundef null)
  store i32 %29, ptr %9, align 4
  %30 = load ptr, ptr %10, align 8
  %31 = getelementptr inbounds nuw %struct._asn1_ctx_t, ptr %30, i32 0, i32 4
  %32 = load ptr, ptr %31, align 8
  store ptr %32, ptr %14, align 8
  %33 = load ptr, ptr %8, align 8
  %34 = load i32, ptr %15, align 4
  %35 = call i32 @get_ber_identifier(ptr noundef %33, i32 noundef %34, ptr noundef null, ptr noundef null, ptr noundef null)
  store i32 %35, ptr %15, align 4
  %36 = load ptr, ptr %8, align 8
  %37 = load i32, ptr %15, align 4
  %38 = call i32 @get_ber_length(ptr noundef %36, i32 noundef %37, ptr noundef null, ptr noundef null)
  store i32 %38, ptr %15, align 4
  %39 = load ptr, ptr %13, align 8
  %40 = getelementptr inbounds nuw %struct.cms_private_data, ptr %39, i32 0, i32 1
  %41 = load ptr, ptr %40, align 8
  %42 = icmp ne ptr %41, null
  br i1 %42, label %43, label %51

43:                                               ; preds = %6
  %44 = load ptr, ptr %14, align 8
  %45 = load ptr, ptr %13, align 8
  %46 = getelementptr inbounds nuw %struct.cms_private_data, ptr %45, i32 0, i32 1
  %47 = load ptr, ptr %46, align 8
  %48 = call ptr @x509af_get_last_algorithm_id()
  %49 = load ptr, ptr %8, align 8
  %50 = load i32, ptr %15, align 4
  call void @cms_verify_msg_digest(ptr noundef %44, ptr noundef %47, ptr noundef %48, ptr noundef %49, i32 noundef %50)
  br label %51

51:                                               ; preds = %43, %6
  %52 = load i32, ptr %9, align 4
  call void @llvm.lifetime.end.p0(i64 4, ptr %15) #5
  call void @llvm.lifetime.end.p0(i64 8, ptr %14) #5
  call void @llvm.lifetime.end.p0(i64 8, ptr %13) #5
  ret i32 %52
}

; Function Attrs: null_pointer_is_valid sspstrong uwtable
define internal i32 @dissect_MessageDigest_PDU(ptr noundef %0, ptr noundef %1, ptr noundef %2, ptr noundef %3) #0 {
  %5 = alloca ptr, align 8
  %6 = alloca ptr, align 8
  %7 = alloca ptr, align 8
  %8 = alloca ptr, align 8
  %9 = alloca i32, align 4
  %10 = alloca %struct._asn1_ctx_t, align 8
  store ptr %0, ptr %5, align 8
  store ptr %1, ptr %6, align 8
  store ptr %2, ptr %7, align 8
  store ptr %3, ptr %8, align 8
  call void @llvm.lifetime.start.p0(i64 4, ptr %9) #5
  store i32 0, ptr %9, align 4
  call void @llvm.lifetime.start.p0(i64 208, ptr %10) #5
  %11 = load ptr, ptr %6, align 8
  call void @asn1_ctx_init(ptr noundef %10, i32 noundef 0, i1 noundef zeroext true, ptr noundef %11)
  %12 = load ptr, ptr %5, align 8
  %13 = load i32, ptr %9, align 4
  %14 = load ptr, ptr %7, align 8
  %15 = load i32, ptr @hf_cms_MessageDigest_PDU, align 4
  %16 = call i32 @dissect_cms_MessageDigest(i1 noundef zeroext false, ptr noundef %12, i32 noundef %13, ptr noundef %10, ptr noundef %14, i32 noundef %15)
  store i32 %16, ptr %9, align 4
  %17 = load i32, ptr %9, align 4
  call void @llvm.lifetime.end.p0(i64 208, ptr %10) #5
  call void @llvm.lifetime.end.p0(i64 4, ptr %9) #5
  ret i32 %17
}