; Function Attrs: null_pointer_is_valid sspstrong uwtable
define internal i32 @dissect_MessageDigest_PDU(ptr noundef %0, ptr noundef %1, ptr noundef %2, ptr readnone captures(none) %3) #0 {
  %5 = alloca %struct._asn1_ctx_t, align 8
  call void @llvm.lifetime.start.p0(i64 208, ptr nonnull %5) #6
  call void @asn1_ctx_init(ptr noundef nonnull %5, i32 noundef 0, i1 noundef zeroext true, ptr noundef %1)
  %6 = load i32, ptr @hf_cms_MessageDigest_PDU, align 4
  %7 = getelementptr inbounds nuw i8, ptr %5, i64 16
  %8 = load ptr, ptr %7, align 8
  %9 = getelementptr inbounds nuw i8, ptr %8, i64 408
  %10 = load ptr, ptr %9, align 8
  %11 = load i32, ptr @proto_cms, align 4
  %12 = call ptr @p_get_proto_data(ptr noundef %10, ptr noundef %8, i32 noundef %11, i32 noundef 0)
  %.not.i.i = icmp eq ptr %12, null
  br i1 %.not.i.i, label %13, label %cms_get_private_data.exit.i

13:                                               ; preds = %4
  %14 = load ptr, ptr %9, align 8
  %15 = call noalias dereferenceable_or_null(16) ptr @wmem_alloc0(ptr noundef %14, i64 noundef 16) #5
  %16 = load ptr, ptr %9, align 8
  %17 = load i32, ptr @proto_cms, align 4
  call void @p_add_proto_data(ptr noundef %16, ptr noundef %8, i32 noundef %17, i32 noundef 0, ptr noundef %15)
  br label %cms_get_private_data.exit.i

cms_get_private_data.exit.i:                      ; preds = %13, %4
  %.0.i.i = phi ptr [ %12, %4 ], [ %15, %13 ]
  %18 = call i32 @dissect_ber_octet_string(i1 noundef zeroext false, ptr noundef nonnull %5, ptr noundef %2, ptr noundef %0, i32 noundef 0, i32 noundef %6, ptr noundef null)
  %19 = getelementptr inbounds nuw i8, ptr %5, i64 24
  %20 = load ptr, ptr %19, align 8
  %21 = call i32 @get_ber_identifier(ptr noundef %0, i32 noundef 0, ptr noundef null, ptr noundef null, ptr noundef null)
  %22 = call i32 @get_ber_length(ptr noundef %0, i32 noundef %21, ptr noundef null, ptr noundef null)
  %23 = getelementptr inbounds nuw i8, ptr %.0.i.i, i64 8
  %24 = load ptr, ptr %23, align 8
  %.not.i = icmp eq ptr %24, null
  br i1 %.not.i, label %dissect_cms_MessageDigest.exit, label %25

25:                                               ; preds = %cms_get_private_data.exit.i
  %26 = call ptr @x509af_get_last_algorithm_id()
  %27 = call i32 @strcmp(ptr noundef readonly %26, ptr noundef nonnull dereferenceable(14) @.str.676) #7
  %28 = icmp eq i32 %27, 0
  br i1 %28, label %32, label %29

29:                                               ; preds = %25
  %30 = call i32 @strcmp(ptr noundef readonly %26, ptr noundef nonnull dereferenceable(19) @.str.677) #7
  %31 = icmp eq i32 %30, 0
  br i1 %31, label %32, label %cms_verify_msg_digest.exit.i

32:                                               ; preds = %29, %25
  %.sink.i.i = phi i32 [ 2, %25 ], [ 1, %29 ]
  %.0.ph.i.i = phi i32 [ 20, %25 ], [ 16, %29 ]
  %33 = call i32 @tvb_captured_length(ptr noundef nonnull %24)
  %34 = call ptr @tvb_get_ptr(ptr noundef nonnull %24, i32 noundef 0, i32 noundef %33)
  %35 = call i32 @tvb_captured_length(ptr noundef nonnull %24)
  %36 = zext i32 %35 to i64
  call void @gcry_md_hash_buffer(i32 noundef %.sink.i.i, ptr noundef nonnull @digest_buf, ptr noundef %34, i64 noundef %36)
  %37 = call zeroext i1 @tvb_bytes_exist(ptr noundef %0, i32 noundef %22, i32 noundef %.0.ph.i.i)
  br i1 %37, label %38, label %cms_verify_msg_digest.exit.i

38:                                               ; preds = %32
  %39 = zext nneg i32 %.0.ph.i.i to i64
  %40 = call i32 @tvb_memeql(ptr noundef %0, i32 noundef %22, ptr noundef nonnull @digest_buf, i64 noundef %39)
  %.not24.i.i = icmp eq i32 %40, 0
  br i1 %.not24.i.i, label %cms_verify_msg_digest.exit.i, label %41

41:                                               ; preds = %38
  call void (ptr, ptr, ...) @proto_item_append_text(ptr noundef %20, ptr noundef nonnull @.str.678)
  br label %42

42:                                               ; preds = %42, %41
  %indvars.iv.i.i = phi i64 [ 0, %41 ], [ %indvars.iv.next.i.i, %42 ]
  %43 = getelementptr [20 x i8], ptr @digest_buf, i64 0, i64 %indvars.iv.i.i
  %44 = load i8, ptr %43, align 1
  %45 = zext i8 %44 to i32
  call void (ptr, ptr, ...) @proto_item_append_text(ptr noundef %20, ptr noundef nonnull @.str.679, i32 noundef %45)
  %indvars.iv.next.i.i = add nuw nsw i64 %indvars.iv.i.i, 1
  %exitcond.not.i.i = icmp eq i64 %indvars.iv.next.i.i, %39
  br i1 %exitcond.not.i.i, label %cms_verify_msg_digest.exit.i, label %42, !llvm.loop !8

cms_verify_msg_digest.exit.i:                     ; preds = %42, %38, %32, %29
  %.str.680.sink.i.i = phi ptr [ @.str.681, %38 ], [ @.str.681, %32 ], [ @.str.682, %29 ], [ @.str.680, %42 ]
  call void (ptr, ptr, ...) @proto_item_append_text(ptr noundef %20, ptr noundef nonnull %.str.680.sink.i.i)
  br label %dissect_cms_MessageDigest.exit

dissect_cms_MessageDigest.exit:                   ; preds = %cms_get_private_data.exit.i, %cms_verify_msg_digest.exit.i
  call void @llvm.lifetime.end.p0(i64 208, ptr nonnull %5) #6
  ret i32 %18
}